(ioptparse
Values
p0
(dp1
S'niter'
p2
S'20'
p3
sS'kills'
p4
S''
p5
sS'Restore'
p6
S'0'
p7
sS'timestep'
p8
S'20'
p9
sS'invert'
p10
g7
sS'SubOnly'
p11
g7
sS'NCluster'
p12
g7
sS'SolvePolMode'
p13
S'I'
p14
sS'doSmearing'
p15
g7
sS'BLFlags'
p16
g5
sS'ms'
p17
S'/media/6B5E-87D0/TestKiz/Beam0_57SBs_Concat_NDPPP_ITER3.moi.28.52.sparse.split.MS'
p18
sS'ChanSels'
p19
g5
sS'NCPU'
p20
S'6'
p21
sS'TChunk'
p22
S'3'
p23
sS'SkyModel'
p24
S'/media/6B5E-87D0/TestKiz/Beam0_57SBs_Concat_NDPPP_ITER3.moi.28.52.sparse.split.MS.model.npy'
p25
sb.