(ioptparse
Values
p0
(dp1
S'CMethod'
p2
S'1'
p3
sS'NCluster'
p4
S'0'
p5
sS'DoPrint'
p6
g5
sS'PSF'
p7
S''
p8
sS'Pfact'
p9
S'1.2'
p10
sS'Boost'
p11
S'3'
p12
sS'im'
p13
S'/media/6B5E-87D0/OBSERVATIONS/FITS/lala.new.fits'
p14
sS'Osm'
p15
S'lala'
p16
sS'snr'
p17
S'10'
p18
sS'DoPlot'
p19
g3
sb.