(dp1
S'img_type'
p2
S'gaus_resid'
p3
sS'flag_minsnr'
p4
F0.59999999999999998
sS'plot_islands'
p5
I00
sS'rms_box'
p6
(I50
I15
tp7
sS'mean_map'
p8
S'default'
p9
sS'psf_generators'
p10
S'calibrators'
p11
sS'psf_kappa2'
p12
F2
sS'flag_maxsize_bm'
p13
F25
sS'advanced_opts'
p14
I01
sS'detection_image'
p15
S''
sS'rms_map'
p16
NsS'opdir_overwrite'
p17
S'overwrite'
p18
sS'savefits_rmsim'
p19
I00
sS'bbs_patches'
p20
NsS'catalog_type'
p21
S'srl'
p22
sS'psf_snrcutstack'
p23
F15
sS'split_isl'
p24
I01
sS'correct_proj'
p25
I01
sS'verbose_fitting'
p26
I00
sS'adaptive_rms_box'
p27
I00
sS'rm_do'
p28
I00
sS'psf_stype_only'
p29
I01
sS'atrous_do'
p30
I00
sS'collapse_av'
p31
ccopy_reg
_reconstructor
p32
(clofar.bdsm.tc
tcListObject
p33
c__builtin__
list
p34
(ltRp35
(dp36
S'extras'
p37
(g31
S'Opts'
p38
tp39
sS'type'
p40
g32
(clofar.bdsm.tc
tcAny
p41
c__builtin__
object
p42
NtRp43
sS'list_handler'
p44
g32
(clofar.bdsm.tc
tcList
p45
g42
NtRp46
(dp47
g40
g43
sbsbsS'pi_fit'
p48
I01
sS'ini_gausfit'
p49
g9
sS'group_by_isl'
p50
I00
sS'do_mc_errors'
p51
I00
sS'savefits_residim'
p52
I00
sS'aperture_posn'
p53
S'centroid'
p54
sS'psf_snrtop'
p55
F0.14999999999999999
sS'shapelet_do'
p56
I00
sS'savefits_meanim'
p57
I00
sS'splitisl_size_extra5'
p58
F0.10000000000000001
sS'src_ra_dec'
p59
NsS'psf_high_snr'
p60
NsS'flagging_opts'
p61
I00
sS'spectralindex_do'
p62
I00
sS'srcroot'
p63
NsS'flag_maxsize_fwhm'
p64
F0.5
sS'gresid_image'
p65
I01
sS'format'
p66
S'fits'
p67
sS'adaptive_thresh'
p68
NsS'kappa_clip'
p69
F3
sS'psf_tess_fuzzy'
p70
F0.050000000000000003
sS'ini_method'
p71
S'intensity'
p72
sS'beam'
p73
NsS'psf_major'
p74
I00
sS'smodel_image'
p75
I00
sS'specind_snr'
p76
F3
sS'fdr_alpha'
p77
F0.050000000000000003
sS'polarisation_do'
p78
I00
sS'force_output'
p79
I00
sS'splitisl_maxsize'
p80
F50
sS'multichan_opts'
p81
I00
sS'flagchan_rms'
p82
I01
sS'collapse_wt'
p83
S'unity'
p84
sS'group_method'
p85
g72
sS'collapse_mode'
p86
S'average'
p87
sS'output_opts'
p88
I00
sS'beam_spectrum'
p89
NsS'psf_tess_sc'
p90
S's'
sS'flag_maxsnr'
p91
F1.5
sS'psf_minor'
p92
I00
sS'bmpersrc_th'
p93
F1
sS'psf_vary_do'
p94
I00
sS'ch0_flagged'
p95
I00
sS'blank_zeros'
p96
I00
sS'debug'
p97
I00
sS'savefits_normim'
p98
I00
sS'frequency_sp'
p99
NsS'interactive'
p100
I00
sS'gmodel_image'
p101
I01
sS'psf_itess_method'
p102
I0
sS'shapelet_fitmode'
p103
S'fit'
p104
sS'psf_primarygen'
p105
S''
sS'print_timing'
p106
I00
sS'minpix_isl'
p107
NsS'mean_image'
p108
I01
sS'peak_fit'
p109
I01
sS'frequency'
p110
NsS'psf_pa'
p111
I00
sS'rms_image'
p112
I01
sS'fittedimage_clip'
p113
F0.10000000000000001
sS'plot_allgaus'
p114
I00
sS'flag_bordersize'
p115
I0
sS'fdr_ratio'
p116
F0.10000000000000001
sS'flag_minsize_bm'
p117
F0.69999999999999996
sS'flagchan_snr'
p118
I01
sS'collapse_ch0'
p119
I0
sS'thresh_isl'
p120
F20
sS'thresh_pix'
p121
F30
sS'beam_sp_derive'
p122
I00
sS'psf_over'
p123
I2
sS'rms_box_bright'
p124
NsS'source_seds'
p125
I00
sS'filename'
p126
S'/home/tasse/Desktop/Image40SB.sum.fits.copy.noise'
p127
sS'psf_gencode'
p128
S'list'
p129
sS'savefits_rankim'
p130
I00
sS'shapelet_basis'
p131
S'cartesian'
p132
sS'psf_use_shap'
p133
I00
sS'shapelet_gresid'
p134
I00
sS'flag_smallsrc'
p135
I00
sS'specind_maxchan'
p136
I0
sS'indir'
p137
NsS'ch0_islands'
p138
I01
sS'splitisl_frac_bigisl3'
p139
F0.80000000000000004
sS'peak_maxsize'
p140
F30
sS'pi_thresh_isl'
p141
NsS'psf_snrcut'
p142
F10
sS'sresid_image'
p143
I00
sS'solnname'
p144
NsS'psf_nsig'
p145
F3
sS'trim_box'
p146
NsS'output_all'
p147
I00
sS'psf_snrbot'
p148
F0.20000000000000001
sS'outfile'
p149
NsS'bbs_patches_mask'
p150
NsS'ncores'
p151
NsS'src_radius_pix'
p152
NsS'incl_empty'
p153
I00
sS'spline_rank'
p154
I3
sS'broadcast'
p155
I00
sS'atrous_jmax'
p156
I0
sS'img_format'
p157
g67
sS'rms_value'
p158
NsS'pi_thresh_pix'
p159
NsS'group_tol'
p160
F1
sS'pi_image'
p161
I00
sS'flag_maxsize_isl'
p162
F2
sS'quiet'
p163
I00
sS'clobber'
p164
I00
sS'stop_at'
p165
NsS'ch0_image'
p166
I01
sS'atrous_lpf'
p167
S'b3'
p168
sS'incl_chan'
p169
I00
sS'thresh'
p170
NsS'psf_smooth'
p171
NsS'atrous_bdsm_do'
p172
I01
sS'check_outsideuniv'
p173
I00
sS'aperture'
p174
Ns.