ccopy_reg
_reconstructor
p0
(cpyrap.images.coordinates
coordinatesystem
p1
c__builtin__
object
p2
Ntp3
Rp4
(dp5
S'_csys'
p6
(dp7
S'telescope'
p8
S'ATCA'
p9
sS'observer'
p10
S'NoY2K'
p11
sS'pointingcenter'
p12
(dp13
S'initial'
p14
I01
sS'value'
p15
cnumpy.core.multiarray
_reconstruct
p16
(cnumpy
ndarray
p17
(I0
tp18
S'b'
p19
tp20
Rp21
(I1
(I2
tp22
cnumpy
dtype
p23
(S'f8'
p24
I0
I1
tp25
Rp26
(I3
S'<'
p27
NNNI-1
I-1
I0
tp28
bI00
S'\x00\x00\x00\x00\x00\x00\x00\x00\x00\x00\x00\x00\x00\x00\x00\x00'
p29
tp30
bssS'obsdate'
p31
(dp32
S'type'
p33
S'epoch'
p34
sS'm0'
p35
(dp36
S'unit'
p37
S'd'
p38
sS'value'
p39
F51544.00000000116
ssS'refer'
p40
S'UTC'
p41
ssS'worldreplace0'
p42
g16
(g17
(I0
tp43
g19
tp44
Rp45
(I1
(I2
tp46
g26
I00
S'\x00\x00\x00\x00\x00\x00\x00\x00\x00\x00\x00\x00\x00\x00\x00\x00'
p47
tp48
bsS'worldmap0'
p49
g16
(g17
(I0
tp50
g19
tp51
Rp52
(I1
(I2
tp53
g23
(S'i4'
p54
I0
I1
tp55
Rp56
(I3
S'<'
p57
NNNI-1
I-1
I0
tp58
bI00
S'\x00\x00\x00\x00\x01\x00\x00\x00'
p59
tp60
bsS'pixelmap0'
p61
g16
(g17
(I0
tp62
g19
tp63
Rp64
(I1
(I2
tp65
g56
I00
S'\x00\x00\x00\x00\x01\x00\x00\x00'
p66
tp67
bsS'direction0'
p68
(dp69
S'crpix'
p70
g16
(g17
(I0
tp71
g19
tp72
Rp73
(I1
(I2
tp74
g26
I00
S'\x00\x00\x00\x00\x00\x00I@\x00\x00\x00\x00\x00\x00I@'
p75
tp76
bsS'longpole'
p77
F180.0
sS'projection'
p78
S'SIN'
p79
sS'projection_parameters'
p80
g16
(g17
(I0
tp81
g19
tp82
Rp83
(I1
(I2
tp84
g26
I00
S'\x00\x00\x00\x00\x00\x00\x00\x00\x00\x00\x00\x00\x00\x00\x00\x00'
p85
tp86
bsS'axes'
p87
(lp88
S'Right Ascension'
p89
aS'Declination'
p90
asS'system'
p91
S'J2000'
p92
sS'cdelt'
p93
g16
(g17
(I0
tp94
g19
tp95
Rp96
(I1
(I2
tp97
g26
I00
S'\x00\x00\x00\x00\x00\x00\xf0\xbf\x00\x00\x00\x00\x00\x00\xf0?'
p98
tp99
bsS'pc'
p100
g16
(g17
(I0
tp101
g19
tp102
Rp103
(I1
(I2
I2
tp104
g26
I00
S'\x00\x00\x00\x00\x00\x00\xf0?\x00\x00\x00\x00\x00\x00\x00\x00\x00\x00\x00\x00\x00\x00\x00\x00\x00\x00\x00\x00\x00\x00\xf0?'
p105
tp106
bsS'conversionSystem'
p107
S'J2000'
p108
sS'crval'
p109
g16
(g17
(I0
tp110
g19
tp111
Rp112
(I1
(I2
tp113
g26
I00
S'\x00\x00\x00\x00\x00\x00\x00\x00\x00\x00\x00\x00\x00\x00\x00\x00'
p114
tp115
bsS'units'
p116
(lp117
S"'"
p118
ag118
asS'latpole'
p119
F0.0
ssS'telescopeposition'
p120
(dp121
S'm1'
p122
(dp123
S'value'
p124
F-0.5261379196128062
sS'unit'
p125
S'rad'
p126
ssS'm2'
p127
(dp128
S'unit'
p129
S'm'
p130
sS'value'
p131
F6372960.257723439
ssS'type'
p132
S'position'
p133
sS'm0'
p134
(dp135
S'value'
p136
F2.6101423190348916
sS'unit'
p137
S'rad'
p138
ssS'refer'
p139
S'ITRF'
p140
ssS'pixelreplace0'
p141
g16
(g17
(I0
tp142
g19
tp143
Rp144
(I1
(I2
tp145
g26
I00
S'\x00\x00\x00\x00\x00\x00\x00\x00\x00\x00\x00\x00\x00\x00\x00\x00'
p146
tp147
bssS'_names'
p148
(lp149
S'direction'
p150
asb.