(ioptparse
Values
p0
(dp1
S'Restore'
p2
S'0'
p3
sS'SolvePolMode'
p4
S'I'
p5
sS'kills'
p6
S''
p7
sS'niter'
p8
S'20'
p9
sS'ApplyCal'
p10
g3
sS'timestep'
p11
S'30'
p12
sS'invert'
p13
g3
sS'SubOnly'
p14
g3
sS'NCPU'
p15
S'6'
p16
sS'doSmearing'
p17
g3
sS'BLFlags'
p18
g7
sS'ms'
p19
S'/media/tasse/data/TestKillPUBLI/L74464_SAP000_SB130_uv.MS.dppp.dppp.dpppFilter'
p20
sS'DoBar'
p21
S'1'
p22
sS'InCol'
p23
S'CORRECTED_DATA_BACKUP'
p24
sS'ChanSels'
p25
g7
sS'TChunk'
p26
S'15'
p27
sS'SkyModel'
p28
S'test.image.pybdsm.sky_in.npy'
p29
sb.