(ioptparse
Values
p0
(dp1
S'Restore'
p2
S'0'
p3
sS'SolvePolMode'
p4
S'I'
p5
sS'kills'
p6
S''
p7
sS'niter'
p8
S'20'
p9
sS'ApplyCal'
p10
g3
sS'timestep'
p11
I30
sS'invert'
p12
g3
sS'SubOnly'
p13
g3
sS'NCPU'
p14
S'6'
p15
sS'doSmearing'
p16
g3
sS'BLFlags'
p17
g7
sS'ms'
p18
S'Simul.MS_p0'
p19
sS'DoBar'
p20
S'1'
p21
sS'InCol'
p22
S'CORRECTED_DATA_BACKUP'
p23
sS'ChanSels'
p24
g7
sS'TChunk'
p25
S'15'
p26
sS'SkyModel'
p27
S'model.txt.npy'
p28
sb.